target datalayout = "e-m:e-p270:32:32-p271:32:32-p272:64:64-i64:64-i128:128-f80:128-n8:16:32:64-S128"
target triple = "x86_64-pc-linux-gnu"

%struct.Proto = type { i8, i8, i8, i8, i8, i8, i8, i8, ptr, ptr, ptr, ptr, ptr, i64, ptr, ptr, ptr, ptr, ptr, ptr, ptr, ptr, ptr, ptr, i32, i32, i32, i32, i32, i32, i32, i32, i32, i32 }
%struct.LocVar = type { ptr, i32, i32, i8 }

; Function Attrs: mustprogress nounwind uwtable
define hidden noundef ptr @_Z13luaF_getlocalPK5Protoii(ptr noundef %0, i32 noundef %1, i32 noundef %2) #4 {
  %4 = alloca ptr, align 8
  %5 = alloca ptr, align 8
  %6 = alloca i32, align 4
  %7 = alloca i32, align 4
  %8 = alloca i32, align 4
  %9 = alloca i32, align 4
  store ptr %0, ptr %5, align 8, !tbaa !21
  store i32 %1, ptr %6, align 4, !tbaa !77
  store i32 %2, ptr %7, align 4, !tbaa !77
  call void @llvm.lifetime.start.p0(i64 4, ptr %8) #5
  store i32 0, ptr %8, align 4, !tbaa !77
  br label %10

10:                                               ; preds = %53, %3
  %11 = load i32, ptr %8, align 4, !tbaa !77
  %12 = load ptr, ptr %5, align 8, !tbaa !21
  %13 = getelementptr inbounds nuw %struct.Proto, ptr %12, i32 0, i32 26
  %14 = load i32, ptr %13, align 8, !tbaa !69
  %15 = icmp slt i32 %11, %14
  br i1 %15, label %17, label %16

16:                                               ; preds = %10
  store i32 2, ptr %9, align 4
  br label %56

17:                                               ; preds = %10
  %18 = load i32, ptr %7, align 4, !tbaa !77
  %19 = load ptr, ptr %5, align 8, !tbaa !21
  %20 = getelementptr inbounds nuw %struct.Proto, ptr %19, i32 0, i32 16
  %21 = load ptr, ptr %20, align 8, !tbaa !59
  %22 = load i32, ptr %8, align 4, !tbaa !77
  %23 = sext i32 %22 to i64
  %24 = getelementptr inbounds %struct.LocVar, ptr %21, i64 %23
  %25 = getelementptr inbounds nuw %struct.LocVar, ptr %24, i32 0, i32 1
  %26 = load i32, ptr %25, align 8, !tbaa !113
  %27 = icmp sge i32 %18, %26
  br i1 %27, label %28, label %52

28:                                               ; preds = %17
  %29 = load i32, ptr %7, align 4, !tbaa !77
  %30 = load ptr, ptr %5, align 8, !tbaa !21
  %31 = getelementptr inbounds nuw %struct.Proto, ptr %30, i32 0, i32 16
  %32 = load ptr, ptr %31, align 8, !tbaa !59
  %33 = load i32, ptr %8, align 4, !tbaa !77
  %34 = sext i32 %33 to i64
  %35 = getelementptr inbounds %struct.LocVar, ptr %32, i64 %34
  %36 = getelementptr inbounds nuw %struct.LocVar, ptr %35, i32 0, i32 2
  %37 = load i32, ptr %36, align 4, !tbaa !115
  %38 = icmp slt i32 %29, %37
  br i1 %38, label %39, label %52

39:                                               ; preds = %28
  %40 = load i32, ptr %6, align 4, !tbaa !77
  %41 = add nsw i32 %40, -1
  store i32 %41, ptr %6, align 4, !tbaa !77
  %42 = load i32, ptr %6, align 4, !tbaa !77
  %43 = icmp eq i32 %42, 0
  br i1 %43, label %44, label %51

44:                                               ; preds = %39
  %45 = load ptr, ptr %5, align 8, !tbaa !21
  %46 = getelementptr inbounds nuw %struct.Proto, ptr %45, i32 0, i32 16
  %47 = load ptr, ptr %46, align 8, !tbaa !59
  %48 = load i32, ptr %8, align 4, !tbaa !77
  %49 = sext i32 %48 to i64
  %50 = getelementptr inbounds %struct.LocVar, ptr %47, i64 %49
  store ptr %50, ptr %4, align 8
  store i32 1, ptr %9, align 4
  br label %56

51:                                               ; preds = %39
  br label %52

52:                                               ; preds = %51, %28, %17
  br label %53

53:                                               ; preds = %52
  %54 = load i32, ptr %8, align 4, !tbaa !77
  %55 = add nsw i32 %54, 1
  store i32 %55, ptr %8, align 4, !tbaa !77
  br label %10, !llvm.loop !116

56:                                               ; preds = %44, %16
  call void @llvm.lifetime.end.p0(i64 4, ptr %8) #5
  %57 = load i32, ptr %9, align 4
  switch i32 %57, label %61 [
    i32 2, label %58
    i32 1, label %59
  ]

58:                                               ; preds = %56
  store ptr null, ptr %4, align 8
  br label %59

59:                                               ; preds = %58, %56
  %60 = load ptr, ptr %4, align 8
  ret ptr %60

61:                                               ; preds = %56
  unreachable
}