; Function Attrs: mustprogress nofree norecurse nosync nounwind willreturn memory(read, inaccessiblemem: none) uwtable
define hidden noundef ptr @_Z13luaF_getlocalPK5Protoii(ptr noundef readonly captures(none) %0, i32 noundef %1, i32 noundef %2) local_unnamed_addr #3 {
  %4 = getelementptr inbounds nuw i8, ptr %0, i64 144
  %5 = load i32, ptr %4, align 8, !tbaa !76
  %.not2021 = icmp sgt i32 %5, 0
  br i1 %.not2021, label %.lr.ph, label %._crit_edge

.lr.ph:                                           ; preds = %3
  %6 = getelementptr inbounds nuw i8, ptr %0, i64 72
  %7 = load ptr, ptr %6, align 8, !tbaa !75
  %wide.trip.count = zext nneg i32 %5 to i64
  br label %8

8:                                                ; preds = %.lr.ph, %19
  %indvars.iv = phi i64 [ 0, %.lr.ph ], [ %indvars.iv.next, %19 ]
  %.01622 = phi i32 [ %1, %.lr.ph ], [ %.117, %19 ]
  %9 = getelementptr inbounds nuw %struct.LocVar, ptr %7, i64 %indvars.iv
  %10 = getelementptr inbounds nuw i8, ptr %9, i64 8
  %11 = load i32, ptr %10, align 8, !tbaa !84
  %.not = icmp slt i32 %2, %11
  br i1 %.not, label %19, label %12

12:                                               ; preds = %8
  %13 = getelementptr inbounds nuw i8, ptr %9, i64 12
  %14 = load i32, ptr %13, align 4, !tbaa !86
  %15 = icmp slt i32 %2, %14
  br i1 %15, label %16, label %19

16:                                               ; preds = %12
  %17 = add nsw i32 %.01622, -1
  %18 = icmp eq i32 %17, 0
  br i1 %18, label %._crit_edge, label %19

19:                                               ; preds = %8, %12, %16
  %.117 = phi i32 [ %17, %16 ], [ %.01622, %12 ], [ %.01622, %8 ]
  %indvars.iv.next = add nuw nsw i64 %indvars.iv, 1
  %exitcond.not = icmp eq i64 %indvars.iv.next, %wide.trip.count
  br i1 %exitcond.not, label %._crit_edge, label %8, !llvm.loop !87

._crit_edge:                                      ; preds = %19, %16, %3
  %spec.select = phi ptr [ null, %3 ], [ %9, %16 ], [ null, %19 ]
  ret ptr %spec.select
}